target datalayout = "e-m:e-p270:32:32-p271:32:32-p272:64:64-i64:64-i128:128-f80:128-n8:16:32:64-S128"
target triple = "x86_64-pc-linux-gnu"

; Function Attrs: nounwind uwtable
define internal zeroext i8 @kwsysBase64DecodeChar(i8 noundef zeroext %0) #0 {
  %2 = alloca i8, align 1
  store i8 %0, ptr %2, align 1, !tbaa !9
  %3 = load i8, ptr %2, align 1, !tbaa !9
  %4 = zext i8 %3 to i64
  %5 = getelementptr inbounds nuw [256 x i8], ptr @kwsysBase64DecodeTable, i64 0, i64 %4
  %6 = load i8, ptr %5, align 1, !tbaa !9
  ret i8 %6
}

; Function Attrs: nounwind uwtable
define dso_local i32 @cmsysBase64_Decode3(ptr noundef %0, ptr noundef %1) #0 {
  %3 = alloca i32, align 4
  %4 = alloca ptr, align 8
  %5 = alloca ptr, align 8
  %6 = alloca i8, align 1
  %7 = alloca i8, align 1
  %8 = alloca i8, align 1
  %9 = alloca i8, align 1
  %10 = alloca i32, align 4
  store ptr %0, ptr %4, align 8, !tbaa !4
  store ptr %1, ptr %5, align 8, !tbaa !4
  call void @llvm.lifetime.start.p0(i64 1, ptr %6) #2
  call void @llvm.lifetime.start.p0(i64 1, ptr %7) #2
  call void @llvm.lifetime.start.p0(i64 1, ptr %8) #2
  call void @llvm.lifetime.start.p0(i64 1, ptr %9) #2
  %11 = load ptr, ptr %4, align 8, !tbaa !4
  %12 = getelementptr inbounds i8, ptr %11, i64 0
  %13 = load i8, ptr %12, align 1, !tbaa !9
  %14 = call zeroext i8 @kwsysBase64DecodeChar(i8 noundef zeroext %13)
  store i8 %14, ptr %6, align 1, !tbaa !9
  %15 = load ptr, ptr %4, align 8, !tbaa !4
  %16 = getelementptr inbounds i8, ptr %15, i64 1
  %17 = load i8, ptr %16, align 1, !tbaa !9
  %18 = call zeroext i8 @kwsysBase64DecodeChar(i8 noundef zeroext %17)
  store i8 %18, ptr %7, align 1, !tbaa !9
  %19 = load ptr, ptr %4, align 8, !tbaa !4
  %20 = getelementptr inbounds i8, ptr %19, i64 2
  %21 = load i8, ptr %20, align 1, !tbaa !9
  %22 = call zeroext i8 @kwsysBase64DecodeChar(i8 noundef zeroext %21)
  store i8 %22, ptr %8, align 1, !tbaa !9
  %23 = load ptr, ptr %4, align 8, !tbaa !4
  %24 = getelementptr inbounds i8, ptr %23, i64 3
  %25 = load i8, ptr %24, align 1, !tbaa !9
  %26 = call zeroext i8 @kwsysBase64DecodeChar(i8 noundef zeroext %25)
  store i8 %26, ptr %9, align 1, !tbaa !9
  %27 = load i8, ptr %6, align 1, !tbaa !9
  %28 = zext i8 %27 to i32
  %29 = icmp eq i32 %28, 255
  br i1 %29, label %42, label %30

30:                                               ; preds = %2
  %31 = load i8, ptr %7, align 1, !tbaa !9
  %32 = zext i8 %31 to i32
  %33 = icmp eq i32 %32, 255
  br i1 %33, label %42, label %34

34:                                               ; preds = %30
  %35 = load i8, ptr %8, align 1, !tbaa !9
  %36 = zext i8 %35 to i32
  %37 = icmp eq i32 %36, 255
  br i1 %37, label %42, label %38

38:                                               ; preds = %34
  %39 = load i8, ptr %9, align 1, !tbaa !9
  %40 = zext i8 %39 to i32
  %41 = icmp eq i32 %40, 255
  br i1 %41, label %42, label %43

42:                                               ; preds = %38, %34, %30, %2
  store i32 0, ptr %3, align 4
  store i32 1, ptr %10, align 4
  br label %94

43:                                               ; preds = %38
  %44 = load i8, ptr %6, align 1, !tbaa !9
  %45 = zext i8 %44 to i32
  %46 = shl i32 %45, 2
  %47 = and i32 %46, 252
  %48 = load i8, ptr %7, align 1, !tbaa !9
  %49 = zext i8 %48 to i32
  %50 = ashr i32 %49, 4
  %51 = and i32 %50, 3
  %52 = or i32 %47, %51
  %53 = trunc i32 %52 to i8
  %54 = load ptr, ptr %5, align 8, !tbaa !4
  %55 = getelementptr inbounds i8, ptr %54, i64 0
  store i8 %53, ptr %55, align 1, !tbaa !9
  %56 = load i8, ptr %7, align 1, !tbaa !9
  %57 = zext i8 %56 to i32
  %58 = shl i32 %57, 4
  %59 = and i32 %58, 240
  %60 = load i8, ptr %8, align 1, !tbaa !9
  %61 = zext i8 %60 to i32
  %62 = ashr i32 %61, 2
  %63 = and i32 %62, 15
  %64 = or i32 %59, %63
  %65 = trunc i32 %64 to i8
  %66 = load ptr, ptr %5, align 8, !tbaa !4
  %67 = getelementptr inbounds i8, ptr %66, i64 1
  store i8 %65, ptr %67, align 1, !tbaa !9
  %68 = load i8, ptr %8, align 1, !tbaa !9
  %69 = zext i8 %68 to i32
  %70 = shl i32 %69, 6
  %71 = and i32 %70, 192
  %72 = load i8, ptr %9, align 1, !tbaa !9
  %73 = zext i8 %72 to i32
  %74 = ashr i32 %73, 0
  %75 = and i32 %74, 63
  %76 = or i32 %71, %75
  %77 = trunc i32 %76 to i8
  %78 = load ptr, ptr %5, align 8, !tbaa !4
  %79 = getelementptr inbounds i8, ptr %78, i64 2
  store i8 %77, ptr %79, align 1, !tbaa !9
  %80 = load ptr, ptr %4, align 8, !tbaa !4
  %81 = getelementptr inbounds i8, ptr %80, i64 2
  %82 = load i8, ptr %81, align 1, !tbaa !9
  %83 = zext i8 %82 to i32
  %84 = icmp eq i32 %83, 61
  br i1 %84, label %85, label %86

85:                                               ; preds = %43
  store i32 1, ptr %3, align 4
  store i32 1, ptr %10, align 4
  br label %94

86:                                               ; preds = %43
  %87 = load ptr, ptr %4, align 8, !tbaa !4
  %88 = getelementptr inbounds i8, ptr %87, i64 3
  %89 = load i8, ptr %88, align 1, !tbaa !9
  %90 = zext i8 %89 to i32
  %91 = icmp eq i32 %90, 61
  br i1 %91, label %92, label %93

92:                                               ; preds = %86
  store i32 2, ptr %3, align 4
  store i32 1, ptr %10, align 4
  br label %94

93:                                               ; preds = %86
  store i32 3, ptr %3, align 4
  store i32 1, ptr %10, align 4
  br label %94

94:                                               ; preds = %93, %92, %85, %42
  call void @llvm.lifetime.end.p0(i64 1, ptr %9) #2
  call void @llvm.lifetime.end.p0(i64 1, ptr %8) #2
  call void @llvm.lifetime.end.p0(i64 1, ptr %7) #2
  call void @llvm.lifetime.end.p0(i64 1, ptr %6) #2
  %95 = load i32, ptr %3, align 4
  ret i32 %95
}