; Function Attrs: mustprogress nofree norecurse nosync nounwind willreturn memory(argmem: readwrite) uwtable
define dso_local range(i32 0, 4) i32 @cmsysBase64_Decode3(ptr noundef readonly captures(none) %0, ptr noundef writeonly captures(none) %1) local_unnamed_addr #0 {
  %3 = load i8, ptr %0, align 1, !tbaa !4
  %4 = zext i8 %3 to i64
  %5 = getelementptr inbounds nuw [256 x i8], ptr @kwsysBase64DecodeTable, i64 0, i64 %4
  %6 = load i8, ptr %5, align 1, !tbaa !4
  %7 = getelementptr inbounds nuw i8, ptr %0, i64 1
  %8 = load i8, ptr %7, align 1, !tbaa !4
  %9 = zext i8 %8 to i64
  %10 = getelementptr inbounds nuw [256 x i8], ptr @kwsysBase64DecodeTable, i64 0, i64 %9
  %11 = load i8, ptr %10, align 1, !tbaa !4
  %12 = getelementptr inbounds nuw i8, ptr %0, i64 2
  %13 = load i8, ptr %12, align 1, !tbaa !4
  %14 = zext i8 %13 to i64
  %15 = getelementptr inbounds nuw [256 x i8], ptr @kwsysBase64DecodeTable, i64 0, i64 %14
  %16 = load i8, ptr %15, align 1, !tbaa !4
  %17 = getelementptr inbounds nuw i8, ptr %0, i64 3
  %18 = load i8, ptr %17, align 1, !tbaa !4
  %19 = zext i8 %18 to i64
  %20 = getelementptr inbounds nuw [256 x i8], ptr @kwsysBase64DecodeTable, i64 0, i64 %19
  %21 = load i8, ptr %20, align 1, !tbaa !4
  %22 = icmp eq i8 %6, -1
  %23 = icmp eq i8 %11, -1
  %or.cond = select i1 %22, i1 true, i1 %23
  %24 = icmp eq i8 %16, -1
  %or.cond5 = select i1 %or.cond, i1 true, i1 %24
  %25 = icmp eq i8 %21, -1
  %or.cond8 = select i1 %or.cond5, i1 true, i1 %25
  br i1 %or.cond8, label %45, label %26

26:                                               ; preds = %2
  %27 = shl i8 %6, 2
  %28 = lshr i8 %11, 4
  %29 = and i8 %28, 3
  %30 = or disjoint i8 %29, %27
  store i8 %30, ptr %1, align 1, !tbaa !4
  %31 = shl i8 %11, 4
  %32 = lshr i8 %16, 2
  %33 = and i8 %32, 15
  %34 = or disjoint i8 %33, %31
  %35 = getelementptr inbounds nuw i8, ptr %1, i64 1
  store i8 %34, ptr %35, align 1, !tbaa !4
  %36 = shl i8 %16, 6
  %37 = and i8 %21, 63
  %38 = or disjoint i8 %37, %36
  %39 = getelementptr inbounds nuw i8, ptr %1, i64 2
  store i8 %38, ptr %39, align 1, !tbaa !4
  %40 = load i8, ptr %12, align 1, !tbaa !4
  %41 = icmp eq i8 %40, 61
  br i1 %41, label %45, label %42

42:                                               ; preds = %26
  %43 = load i8, ptr %17, align 1, !tbaa !4
  %44 = icmp eq i8 %43, 61
  %. = select i1 %44, i32 2, i32 3
  br label %45

45:                                               ; preds = %42, %26, %2
  %.0 = phi i32 [ 0, %2 ], [ 1, %26 ], [ %., %42 ]
  ret i32 %.0
}